; Function Attrs: mustprogress nounwind uwtable
define void @_ZN7rocksdb25RandomTransactionInserterD2Ev(ptr noundef nonnull align 8 dereferenceable(296) %0) unnamed_addr #3 align 2 personality ptr @__gxx_personality_v0 {
  %2 = getelementptr inbounds nuw i8, ptr %0, i64 264
  %3 = load ptr, ptr %2, align 8, !tbaa !50
  %.not = icmp eq ptr %3, null
  br i1 %.not, label %8, label %4

4:                                                ; preds = %1
  %5 = load ptr, ptr %3, align 8, !tbaa !51
  %6 = getelementptr inbounds nuw i8, ptr %5, i64 8
  %7 = load ptr, ptr %6, align 8
  tail call void %7(ptr noundef nonnull align 8 dereferenceable(64) %3) #23
  br label %8

8:                                                ; preds = %4, %1
  %9 = getelementptr inbounds nuw i8, ptr %0, i64 272
  %10 = load ptr, ptr %9, align 8, !tbaa !53
  %.not2 = icmp eq ptr %10, null
  br i1 %.not2, label %15, label %11

11:                                               ; preds = %8
  %12 = load ptr, ptr %10, align 8, !tbaa !51
  %13 = getelementptr inbounds nuw i8, ptr %12, i64 8
  %14 = load ptr, ptr %13, align 8
  tail call void %14(ptr noundef nonnull align 8 dereferenceable(64) %10) #23
  br label %15

15:                                               ; preds = %11, %8
  %16 = getelementptr inbounds nuw i8, ptr %0, i64 256
  %17 = load ptr, ptr %16, align 8, !tbaa !54
  %.not.i.i = icmp eq ptr %17, null
  br i1 %.not.i.i, label %_ZN7rocksdb6StatusD2Ev.exit, label %_ZNKSt14default_deleteIA_KcEclIS0_EENSt9enable_ifIXsr14is_convertibleIPA_T_PS1_EE5valueEvE4typeEPS5_.exit.i.i

_ZNKSt14default_deleteIA_KcEclIS0_EENSt9enable_ifIXsr14is_convertibleIPA_T_PS1_EE5valueEvE4typeEPS5_.exit.i.i: ; preds = %15
  tail call void @_ZdaPv(ptr noundef nonnull %17) #24
  br label %_ZN7rocksdb6StatusD2Ev.exit

_ZN7rocksdb6StatusD2Ev.exit:                      ; preds = %15, %_ZNKSt14default_deleteIA_KcEclIS0_EENSt9enable_ifIXsr14is_convertibleIPA_T_PS1_EE5valueEvE4typeEPS5_.exit.i.i
  store ptr null, ptr %16, align 8, !tbaa !54
  %18 = getelementptr inbounds nuw i8, ptr %0, i64 176
  %19 = load ptr, ptr %18, align 8, !tbaa !44
  %.not.i.i3 = icmp eq ptr %19, null
  br i1 %.not.i.i3, label %_ZN7rocksdb11ReadOptionsD2Ev.exit, label %20

20:                                               ; preds = %_ZN7rocksdb6StatusD2Ev.exit
  %21 = getelementptr inbounds nuw i8, ptr %0, i64 160
  %22 = invoke noundef zeroext i1 %19(ptr noundef nonnull align 8 dereferenceable(32) %21, ptr noundef nonnull align 8 dereferenceable(32) %21, i32 noundef 3)
          to label %_ZN7rocksdb11ReadOptionsD2Ev.exit unwind label %23

23:                                               ; preds = %20
  %24 = landingpad { ptr, i32 }
          catch ptr null
  %25 = extractvalue { ptr, i32 } %24, 0
  tail call void @__clang_call_terminate(ptr %25) #22
  unreachable

_ZN7rocksdb11ReadOptionsD2Ev.exit:                ; preds = %_ZN7rocksdb6StatusD2Ev.exit, %20
  ret void
}